; Function Attrs: mustprogress nofree nounwind willreturn memory(write) uwtable
define dso_local range(i32 0, 2) i32 @geohashGetDistanceIfInRadiusWGS84(double noundef %0, double noundef %1, double noundef %2, double noundef %3, double noundef %4, ptr noundef writeonly captures(none) initializes((0, 8)) %5) local_unnamed_addr #9 {
  %7 = fmul double %0, 0x3F91DF46A2529D39
  %8 = fmul double %2, 0x3F91DF46A2529D39
  %9 = fsub double %8, %7
  %10 = fmul double %9, 5.000000e-01
  %11 = tail call double @sin(double noundef %10) #11, !tbaa !16
  %12 = fcmp oeq double %11, 0.000000e+00
  br i1 %12, label %13, label %19

13:                                               ; preds = %6
  %14 = fmul double %3, 0x3F91DF46A2529D39
  %15 = fmul double %1, 0x3F91DF46A2529D39
  %16 = fsub double %14, %15
  %17 = tail call double @llvm.fabs.f64(double %16)
  %18 = fmul double %17, 0x41584F6F63E51090
  br label %geohashGetDistanceIfInRadius.exit

19:                                               ; preds = %6
  %20 = fmul double %1, 0x3F91DF46A2529D39
  %21 = fmul double %3, 0x3F91DF46A2529D39
  %22 = fsub double %21, %20
  %23 = fmul double %22, 5.000000e-01
  %24 = tail call double @sin(double noundef %23) #11, !tbaa !16
  %25 = tail call double @cos(double noundef %20) #11, !tbaa !16
  %26 = tail call double @cos(double noundef %21) #11, !tbaa !16
  %27 = fmul double %25, %26
  %28 = fmul double %11, %27
  %29 = fmul double %11, %28
  %30 = tail call double @llvm.fmuladd.f64(double %24, double %24, double %29)
  %31 = tail call double @sqrt(double noundef %30) #11, !tbaa !16
  %32 = tail call double @asin(double noundef %31) #11, !tbaa !16
  %33 = fmul double %32, 0x41684F6F63E51090
  br label %geohashGetDistanceIfInRadius.exit

geohashGetDistanceIfInRadius.exit:                ; preds = %13, %19
  %.0.i.i = phi double [ %18, %13 ], [ %33, %19 ]
  store double %.0.i.i, ptr %5, align 8, !tbaa !7
  %34 = fcmp ule double %.0.i.i, %4
  %..i = zext i1 %34 to i32
  ret i32 %..i
}